; Function Attrs: null_pointer_is_valid sspstrong uwtable
define internal void @nas_emm_ul_gen_nas_trans(ptr noundef %0, ptr noundef %1, ptr noundef initializes((384, 388)) %2, i32 noundef %3, i32 noundef %4) #1 {
  %6 = getelementptr inbounds nuw i8, ptr %2, i64 384
  store i32 0, ptr %6, align 8
  %7 = icmp sgt i32 %4, 0
  br i1 %7, label %8, label %14

8:                                                ; preds = %5
  %9 = tail call zeroext i16 @elem_v(ptr noundef %0, ptr noundef %1, ptr noundef %2, i32 noundef 10, i32 noundef 51, i32 noundef %3, ptr noundef null)
  %.not = icmp eq i16 %9, 0
  br i1 %.not, label %14, label %10

10:                                               ; preds = %8
  %11 = zext i16 %9 to i32
  %12 = add i32 %3, %11
  %13 = sub nsw i32 %4, %11
  br label %17

14:                                               ; preds = %8, %5
  %15 = tail call ptr @get_gsm_a_msg_string(i32 noundef 10, i32 noundef 51)
  %16 = tail call ptr (ptr, ptr, ptr, ptr, i32, i32, ptr, ...) @proto_tree_add_expert_format(ptr noundef %1, ptr noundef %2, ptr noundef nonnull @ei_nas_eps_missing_mandatory_elemen, ptr noundef %0, i32 noundef %3, i32 noundef 0, ptr noundef nonnull @.str.959, ptr noundef %15, ptr noundef nonnull @.str.952)
  br label %17

17:                                               ; preds = %14, %10
  %.047 = phi i32 [ %12, %10 ], [ %3, %14 ]
  %.0 = phi i32 [ %13, %10 ], [ %4, %14 ]
  %18 = icmp sgt i32 %.0, 0
  br i1 %18, label %19, label %25

19:                                               ; preds = %17
  %20 = tail call zeroext i16 @elem_lv_e(ptr noundef %0, ptr noundef %1, ptr noundef %2, i32 noundef 10, i32 noundef 52, i32 noundef %.047, i32 noundef %.0, ptr noundef null)
  %.not54 = icmp eq i16 %20, 0
  br i1 %.not54, label %25, label %21

21:                                               ; preds = %19
  %22 = zext i16 %20 to i32
  %23 = add i32 %.047, %22
  %24 = sub nsw i32 %.0, %22
  br label %28

25:                                               ; preds = %19, %17
  %26 = tail call ptr @get_gsm_a_msg_string(i32 noundef 10, i32 noundef 52)
  %27 = tail call ptr (ptr, ptr, ptr, ptr, i32, i32, ptr, ...) @proto_tree_add_expert_format(ptr noundef %1, ptr noundef %2, ptr noundef nonnull @ei_nas_eps_missing_mandatory_elemen, ptr noundef %0, i32 noundef %.047, i32 noundef 0, ptr noundef nonnull @.str.959, ptr noundef %26, ptr noundef nonnull @.str.952)
  br label %28

28:                                               ; preds = %25, %21
  %.148 = phi i32 [ %23, %21 ], [ %.047, %25 ]
  %.1 = phi i32 [ %24, %21 ], [ %.0, %25 ]
  %29 = icmp slt i32 %.1, 1
  br i1 %29, label %37, label %30

30:                                               ; preds = %28
  %31 = tail call zeroext i16 @elem_tlv(ptr noundef %0, ptr noundef %1, ptr noundef %2, i8 noundef zeroext 101, i32 noundef 9, i32 noundef 0, i32 noundef %.148, i32 noundef %.1, ptr noundef null)
  %32 = zext i16 %31 to i32
  %.not56 = icmp eq i32 %.1, %32
  br i1 %.not56, label %37, label %33

33:                                               ; preds = %30
  %34 = sub nsw i32 %.1, %32
  %35 = add i32 %.148, %32
  %36 = tail call ptr @proto_tree_add_expert(ptr noundef %1, ptr noundef %2, ptr noundef nonnull @ei_nas_eps_extraneous_data, ptr noundef %0, i32 noundef %35, i32 noundef %34)
  br label %37

37:                                               ; preds = %30, %33, %28
  ret void
}